target datalayout = "e-m:e-p270:32:32-p271:32:32-p272:64:64-i64:64-i128:128-f80:128-n8:16:32:64-S128"
target triple = "x86_64-pc-linux-gnu"

%"class.std::_Function_base" = type { %"union.std::_Any_data", ptr }
%"union.std::_Any_data" = type { %"union.std::_Nocopy_types" }
%"union.std::_Nocopy_types" = type { { i64, i64 } }
%class.anon.73 = type { ptr, i64 }
%"class.gmx::ParrinelloRahmanBarostat" = type { %"class.gmx::ISimulatorElement", %"class.gmx::ICheckpointHelperClient", %"class.gmx::IEnergySignallerClient", i32, i32, float, i64, ptr, %"class.std::function.27", %"class.gmx::MultiDimArray", [3 x [3 x float]], [3 x [3 x float]], float, i64, ptr, ptr, %"class.std::__cxx11::basic_string", i64, %"class.gmx::MDLogger", ptr, ptr }
%"class.gmx::ISimulatorElement" = type { ptr }
%"class.gmx::ICheckpointHelperClient" = type { ptr }
%"class.gmx::IEnergySignallerClient" = type { ptr }
%"class.std::function.27" = type { %"class.std::_Function_base", ptr }
%"class.gmx::MultiDimArray" = type { %"struct.std::array", %"class.gmx::basic_mdspan" }
%"struct.std::array" = type { [9 x float] }
%"class.gmx::basic_mdspan" = type { [8 x i8], ptr }
%"class.std::__cxx11::basic_string" = type { %"struct.std::__cxx11::basic_string<char>::_Alloc_hider", i64, %union.anon }
%"struct.std::__cxx11::basic_string<char>::_Alloc_hider" = type { ptr }
%union.anon = type { i64, [8 x i8] }
%"class.gmx::MDLogger" = type { %"class.gmx::LogLevelHelper", %"class.gmx::LogLevelHelper", %"class.gmx::LogLevelHelper", %"class.gmx::LogLevelHelper", %"class.gmx::LogLevelHelper" }
%"class.gmx::LogLevelHelper" = type { ptr }

; Function Attrs: inlinehint mustprogress uwtable
define internal void @"_ZZN3gmx24ParrinelloRahmanBarostat12scheduleTaskEldRKSt8functionIFvS1_IFvvEEEEENK3$_0clEv"(ptr noundef nonnull align 8 dereferenceable(16) %0) #14 align 2 {
  %2 = alloca ptr, align 8
  store ptr %0, ptr %2, align 8, !tbaa !221
  %3 = load ptr, ptr %2, align 8
  %4 = getelementptr inbounds nuw %class.anon.73, ptr %3, i32 0, i32 0
  %5 = load ptr, ptr %4, align 8, !tbaa !51
  %6 = call noundef float @_ZNK3gmx24ParrinelloRahmanBarostat27conservedEnergyContributionEv(ptr noundef nonnull align 8 dereferenceable(344) %5)
  %7 = getelementptr inbounds nuw %"class.gmx::ParrinelloRahmanBarostat", ptr %5, i32 0, i32 12
  store float %6, ptr %7, align 8, !tbaa !266
  %8 = getelementptr inbounds nuw %class.anon.73, ptr %3, i32 0, i32 1
  %9 = load i64, ptr %8, align 8, !tbaa !53
  %10 = getelementptr inbounds nuw %"class.gmx::ParrinelloRahmanBarostat", ptr %5, i32 0, i32 13
  store i64 %9, ptr %10, align 8, !tbaa !288
  ret void
}

; Function Attrs: mustprogress nounwind uwtable
define linkonce_odr noundef ptr @_ZNKSt9_Any_data9_M_accessEv(ptr noundef nonnull align 8 dereferenceable(16) %0) #1 comdat align 2 {
  %2 = alloca ptr, align 8
  store ptr %0, ptr %2, align 8, !tbaa !255
  %3 = load ptr, ptr %2, align 8
  %4 = getelementptr inbounds [16 x i8], ptr %3, i64 0, i64 0
  ret ptr %4
}

; Function Attrs: mustprogress uwtable
define internal void @"_ZSt13__invoke_implIvRZN3gmx24ParrinelloRahmanBarostat12scheduleTaskEldRKSt8functionIFvS2_IFvvEEEEE3$_0JEET_St14__invoke_otherOT0_DpOT1_"(ptr noundef nonnull align 8 dereferenceable(16) %0) #0 {
  %2 = alloca ptr, align 8
  store ptr %0, ptr %2, align 8, !tbaa !221
  %3 = load ptr, ptr %2, align 8, !tbaa !221
  call void @"_ZZN3gmx24ParrinelloRahmanBarostat12scheduleTaskEldRKSt8functionIFvS1_IFvvEEEEENK3$_0clEv"(ptr noundef nonnull align 8 dereferenceable(16) %3)
  ret void
}

; Function Attrs: mustprogress nounwind uwtable
define internal noundef nonnull align 8 dereferenceable(16) ptr @"_ZNKSt9_Any_data9_M_accessIZN3gmx24ParrinelloRahmanBarostat12scheduleTaskEldRKSt8functionIFvS3_IFvvEEEEE3$_0EERKT_v"(ptr noundef nonnull align 8 dereferenceable(16) %0) #1 align 2 {
  %2 = alloca ptr, align 8
  store ptr %0, ptr %2, align 8, !tbaa !255
  %3 = load ptr, ptr %2, align 8
  %4 = call noundef ptr @_ZNKSt9_Any_data9_M_accessEv(ptr noundef nonnull align 8 dereferenceable(16) %3) #25
  ret ptr %4
}

; Function Attrs: mustprogress uwtable
define internal void @"_ZSt10__invoke_rIvRZN3gmx24ParrinelloRahmanBarostat12scheduleTaskEldRKSt8functionIFvS2_IFvvEEEEE3$_0JEENSt9enable_ifIX16is_invocable_r_vIT_T0_DpT1_EESC_E4typeEOSD_DpOSE_"(ptr noundef nonnull align 8 dereferenceable(16) %0) #0 {
  %2 = alloca ptr, align 8
  store ptr %0, ptr %2, align 8, !tbaa !221
  %3 = load ptr, ptr %2, align 8, !tbaa !221
  call void @"_ZSt13__invoke_implIvRZN3gmx24ParrinelloRahmanBarostat12scheduleTaskEldRKSt8functionIFvS2_IFvvEEEEE3$_0JEET_St14__invoke_otherOT0_DpOT1_"(ptr noundef nonnull align 8 dereferenceable(16) %3)
  ret void
}

; Function Attrs: mustprogress nounwind uwtable
define internal noundef ptr @"_ZNSt14_Function_base13_Base_managerIZN3gmx24ParrinelloRahmanBarostat12scheduleTaskEldRKSt8functionIFvS3_IFvvEEEEE3$_0E14_M_get_pointerERKSt9_Any_data"(ptr noundef nonnull align 8 dereferenceable(16) %0) #1 align 2 {
  %2 = alloca ptr, align 8
  %3 = alloca ptr, align 8
  store ptr %0, ptr %2, align 8, !tbaa !255
  call void @llvm.lifetime.start.p0(i64 8, ptr %3) #25
  %4 = load ptr, ptr %2, align 8, !tbaa !255
  %5 = call noundef nonnull align 8 dereferenceable(16) ptr @"_ZNKSt9_Any_data9_M_accessIZN3gmx24ParrinelloRahmanBarostat12scheduleTaskEldRKSt8functionIFvS3_IFvvEEEEE3$_0EERKT_v"(ptr noundef nonnull align 8 dereferenceable(16) %4) #25
  store ptr %5, ptr %3, align 8, !tbaa !221
  %6 = load ptr, ptr %3, align 8, !tbaa !221
  call void @llvm.lifetime.end.p0(i64 8, ptr %3) #25
  ret ptr %6
}

; Function Attrs: mustprogress uwtable
define internal void @"_ZNSt17_Function_handlerIFvvEZN3gmx24ParrinelloRahmanBarostat12scheduleTaskEldRKSt8functionIFvS3_IS0_EEEE3$_0E9_M_invokeERKSt9_Any_data"(ptr noundef nonnull align 8 dereferenceable(16) %0) #0 align 2 {
  %2 = alloca ptr, align 8
  store ptr %0, ptr %2, align 8, !tbaa !255
  %3 = load ptr, ptr %2, align 8, !tbaa !255
  %4 = call noundef ptr @"_ZNSt14_Function_base13_Base_managerIZN3gmx24ParrinelloRahmanBarostat12scheduleTaskEldRKSt8functionIFvS3_IFvvEEEEE3$_0E14_M_get_pointerERKSt9_Any_data"(ptr noundef nonnull align 8 dereferenceable(16) %3) #25
  call void @"_ZSt10__invoke_rIvRZN3gmx24ParrinelloRahmanBarostat12scheduleTaskEldRKSt8functionIFvS2_IFvvEEEEE3$_0JEENSt9enable_ifIX16is_invocable_r_vIT_T0_DpT1_EESC_E4typeEOSD_DpOSE_"(ptr noundef nonnull align 8 dereferenceable(16) %4)
  ret void
}