; Function Attrs: mustprogress uwtable
define internal void @"_ZNSt17_Function_handlerIFvvEZN3gmx24ParrinelloRahmanBarostat12scheduleTaskEldRKSt8functionIFvS3_IS0_EEEE3$_0E9_M_invokeERKSt9_Any_data"(ptr noundef nonnull readonly align 8 captures(none) dereferenceable(16) %0) #0 align 2 {
  %2 = load ptr, ptr %0, align 8, !tbaa !216
  %3 = tail call noundef float @_ZNK3gmx24ParrinelloRahmanBarostat27conservedEnergyContributionEv(ptr noundef nonnull align 8 dereferenceable(344) %2)
  %4 = getelementptr inbounds nuw i8, ptr %2, i64 216
  store float %3, ptr %4, align 8, !tbaa !207
  %5 = getelementptr inbounds nuw i8, ptr %0, i64 8
  %6 = load i64, ptr %5, align 8, !tbaa !218
  %7 = getelementptr inbounds nuw i8, ptr %2, i64 224
  store i64 %6, ptr %7, align 8, !tbaa !219
  ret void
}